; Function Attrs: nounwind uwtable
define hidden void @X11_SetWindowMinimumSize(ptr noundef %0, ptr noundef %1) local_unnamed_addr #0 {
  %3 = getelementptr inbounds nuw i8, ptr %1, i64 392
  %4 = load ptr, ptr %3, align 8
  %5 = getelementptr inbounds nuw i8, ptr %4, i64 528
  %6 = load i32, ptr %5, align 8
  %7 = and i32 %6, 8
  %.not = icmp eq i32 %7, 0
  br i1 %.not, label %10, label %8

8:                                                ; preds = %2
  %9 = tail call zeroext i1 @X11_SyncWindow(ptr noundef %0, ptr noundef nonnull %1)
  br label %10

10:                                               ; preds = %8, %2
  %11 = getelementptr inbounds nuw i8, ptr %1, i64 72
  %12 = load i64, ptr %11, align 8
  %13 = and i64 %12, 1
  %.not5 = icmp eq i64 %13, 0
  br i1 %.not5, label %14, label %15

14:                                               ; preds = %10
  tail call void @X11_SetWindowMinMax(ptr noundef nonnull %1, i1 noundef zeroext true)
  br label %15

15:                                               ; preds = %14, %10
  ret void
}